; Function Attrs: mustprogress nounwind uwtable
define hidden void @_ZN13G1BatchedTaskD2Ev(ptr nocapture noundef nonnull align 8 dereferenceable(64) %0) unnamed_addr #0 align 2 {
  store ptr getelementptr inbounds inrange(-16, 8) (i8, ptr @_ZTV13G1BatchedTask, i64 16), ptr %0, align 8
  %2 = getelementptr inbounds i8, ptr %0, i64 48
  %3 = load i32, ptr %2, align 8
  %.not28 = icmp eq i32 %3, 0
  br i1 %.not28, label %._crit_edge, label %.lr.ph

.lr.ph:                                           ; preds = %1
  %4 = getelementptr inbounds i8, ptr %0, i64 56
  %5 = zext i32 %3 to i64
  br label %6

6:                                                ; preds = %.lr.ph, %15
  %indvars.iv = phi i64 [ 0, %.lr.ph ], [ %indvars.iv.next, %15 ]
  %7 = load ptr, ptr %4, align 8
  %8 = getelementptr inbounds ptr, ptr %7, i64 %indvars.iv
  %9 = load ptr, ptr %8, align 8
  %10 = icmp eq ptr %9, null
  br i1 %10, label %15, label %11

11:                                               ; preds = %6
  %12 = load ptr, ptr %9, align 8
  %13 = getelementptr inbounds i8, ptr %12, i64 8
  %14 = load ptr, ptr %13, align 8
  tail call void %14(ptr noundef nonnull align 8 dereferenceable(12) %9) #9
  br label %15

15:                                               ; preds = %6, %11
  %indvars.iv.next = add nuw nsw i64 %indvars.iv, 1
  %.not = icmp eq i64 %indvars.iv.next, %5
  br i1 %.not, label %._crit_edge, label %6

._crit_edge:                                      ; preds = %15, %1
  %16 = getelementptr inbounds i8, ptr %0, i64 32
  %17 = load i32, ptr %16, align 8
  %.not2730 = icmp eq i32 %17, 0
  br i1 %.not2730, label %._crit_edge34, label %.lr.ph33

.lr.ph33:                                         ; preds = %._crit_edge
  %18 = getelementptr inbounds i8, ptr %0, i64 40
  %19 = zext i32 %17 to i64
  br label %20

20:                                               ; preds = %.lr.ph33, %29
  %indvars.iv36 = phi i64 [ 0, %.lr.ph33 ], [ %indvars.iv.next37, %29 ]
  %21 = load ptr, ptr %18, align 8
  %22 = getelementptr inbounds ptr, ptr %21, i64 %indvars.iv36
  %23 = load ptr, ptr %22, align 8
  %24 = icmp eq ptr %23, null
  br i1 %24, label %29, label %25

25:                                               ; preds = %20
  %26 = load ptr, ptr %23, align 8
  %27 = getelementptr inbounds i8, ptr %26, i64 8
  %28 = load ptr, ptr %27, align 8
  tail call void %28(ptr noundef nonnull align 8 dereferenceable(12) %23) #9
  br label %29

29:                                               ; preds = %20, %25
  %indvars.iv.next37 = add nuw nsw i64 %indvars.iv36, 1
  %.not27 = icmp eq i64 %indvars.iv.next37, %19
  br i1 %.not27, label %._crit_edge34, label %20

._crit_edge34:                                    ; preds = %29, %._crit_edge
  store i32 0, ptr %2, align 8
  %30 = getelementptr inbounds i8, ptr %0, i64 52
  %31 = load i32, ptr %30, align 4
  %32 = icmp eq i32 %31, 0
  br i1 %32, label %_ZN18GrowableArrayCHeapIP17G1AbstractSubTaskL8MEMFLAGS5EED2Ev.exit, label %.loopexit.i.i.i

.loopexit.i.i.i:                                  ; preds = %._crit_edge34
  %33 = getelementptr inbounds i8, ptr %0, i64 56
  %34 = load ptr, ptr %33, align 8
  store i32 0, ptr %30, align 4
  %.not.i.i.i = icmp eq ptr %34, null
  br i1 %.not.i.i.i, label %35, label %.loopexit.thread.i.i.i

.loopexit.thread.i.i.i:                           ; preds = %.loopexit.i.i.i
  tail call void @_ZN27GrowableArrayCHeapAllocator10deallocateEPv(ptr noundef nonnull %34) #9
  br label %35

35:                                               ; preds = %.loopexit.thread.i.i.i, %.loopexit.i.i.i
  store ptr null, ptr %33, align 8
  br label %_ZN18GrowableArrayCHeapIP17G1AbstractSubTaskL8MEMFLAGS5EED2Ev.exit

_ZN18GrowableArrayCHeapIP17G1AbstractSubTaskL8MEMFLAGS5EED2Ev.exit: ; preds = %._crit_edge34, %35
  store i32 0, ptr %16, align 8
  %36 = getelementptr inbounds i8, ptr %0, i64 36
  %37 = load i32, ptr %36, align 4
  %38 = icmp eq i32 %37, 0
  br i1 %38, label %_ZN18GrowableArrayCHeapIP17G1AbstractSubTaskL8MEMFLAGS5EED2Ev.exit17, label %.loopexit.i.i.i14

.loopexit.i.i.i14:                                ; preds = %_ZN18GrowableArrayCHeapIP17G1AbstractSubTaskL8MEMFLAGS5EED2Ev.exit
  %39 = getelementptr inbounds i8, ptr %0, i64 40
  %40 = load ptr, ptr %39, align 8
  store i32 0, ptr %36, align 4
  %.not.i.i.i15 = icmp eq ptr %40, null
  br i1 %.not.i.i.i15, label %41, label %.loopexit.thread.i.i.i16

.loopexit.thread.i.i.i16:                         ; preds = %.loopexit.i.i.i14
  tail call void @_ZN27GrowableArrayCHeapAllocator10deallocateEPv(ptr noundef nonnull %40) #9
  br label %41

41:                                               ; preds = %.loopexit.thread.i.i.i16, %.loopexit.i.i.i14
  store ptr null, ptr %39, align 8
  br label %_ZN18GrowableArrayCHeapIP17G1AbstractSubTaskL8MEMFLAGS5EED2Ev.exit17

_ZN18GrowableArrayCHeapIP17G1AbstractSubTaskL8MEMFLAGS5EED2Ev.exit17: ; preds = %_ZN18GrowableArrayCHeapIP17G1AbstractSubTaskL8MEMFLAGS5EED2Ev.exit, %41
  ret void
}